; Function Attrs: mustprogress uwtable
define noundef i64 @_ZN32pxrInternal_v0_24__pxrReserved__27GeomUtilSphereMeshGenerator16ComputeNumPointsEmmb(i64 noundef %0, i64 noundef %1, i1 noundef zeroext %2) local_unnamed_addr #0 align 2 {
  %4 = icmp ult i64 %0, 3
  %5 = icmp ult i64 %1, 2
  %or.cond = or i1 %4, %5
  br i1 %or.cond, label %11, label %6

6:                                                ; preds = %3
  %7 = tail call noundef i64 @_ZN32pxrInternal_v0_24__pxrReserved__25GeomUtilMeshGeneratorBase23_ComputeNumRadialPointsEmb(i64 noundef %0, i1 noundef zeroext %2)
  %8 = add i64 %1, -1
  %9 = mul i64 %7, %8
  %10 = add i64 %9, 2
  br label %11

11:                                               ; preds = %3, %6
  %.0 = phi i64 [ %10, %6 ], [ 0, %3 ]
  ret i64 %.0
}